; Function Attrs: nounwind uwtable
define internal range(i32 0, 2) i32 @test_PACKET_get_length_prefixed_3() #0 {
  %1 = alloca [1024 x i8], align 16
  call void @llvm.lifetime.start.p0(i64 1024, ptr nonnull %1) #6
  br label %2

2:                                                ; preds = %0, %2
  %indvars.iv = phi i64 [ 0, %0 ], [ %indvars.iv.next, %2 ]
  %storemerge.tr = trunc i64 %indvars.iv to i8
  %3 = shl i8 %storemerge.tr, 1
  %4 = getelementptr inbounds nuw [1024 x i8], ptr %1, i64 0, i64 %indvars.iv
  store i8 %3, ptr %4, align 1, !tbaa !4
  %indvars.iv.next = add nuw nsw i64 %indvars.iv, 1
  %exitcond.not = icmp eq i64 %indvars.iv.next, 1024
  br i1 %exitcond.not, label %5, label %2, !llvm.loop !11

5:                                                ; preds = %2
  %6 = tail call i32 @test_true(ptr noundef nonnull @.str.25, i32 noundef 408, ptr noundef nonnull @.str.111, i32 noundef 1) #6
  %.not = icmp eq i32 %6, 0
  br i1 %.not, label %43, label %7

7:                                                ; preds = %5
  %8 = tail call i32 @test_true(ptr noundef nonnull @.str.25, i32 noundef 409, ptr noundef nonnull @.str.106, i32 noundef 1) #6
  %.not2 = icmp eq i32 %8, 0
  br i1 %.not2, label %43, label %PACKET_get_length_prefixed_3.exit

PACKET_get_length_prefixed_3.exit:                ; preds = %7
  %9 = load i8, ptr %1, align 16, !tbaa !4
  %10 = zext i8 %9 to i64
  %11 = shl nuw nsw i64 %10, 16
  %12 = getelementptr inbounds nuw i8, ptr %1, i64 1
  %13 = load i8, ptr %12, align 1, !tbaa !4
  %14 = zext i8 %13 to i64
  %15 = shl nuw nsw i64 %14, 8
  %16 = or disjoint i64 %15, %11
  %17 = getelementptr inbounds nuw i8, ptr %1, i64 2
  %18 = load i8, ptr %17, align 2, !tbaa !4
  %19 = zext i8 %18 to i64
  %20 = or disjoint i64 %16, %19
  %21 = icmp samesign ult i64 %20, 1022
  %22 = getelementptr inbounds nuw i8, ptr %1, i64 3
  %.sroa.7.0 = select i1 %21, i64 %20, i64 0
  %.0.i = zext i1 %21 to i32
  %23 = tail call i32 @test_true(ptr noundef nonnull @.str.25, i32 noundef 410, ptr noundef nonnull @.str.115, i32 noundef %.0.i) #6
  %.not3 = icmp eq i32 %23, 0
  br i1 %.not3, label %43, label %24

24:                                               ; preds = %PACKET_get_length_prefixed_3.exit
  %25 = tail call i32 @test_size_t_eq(ptr noundef nonnull @.str.25, i32 noundef 411, ptr noundef nonnull @.str.68, ptr noundef nonnull @.str.84, i64 noundef %.sroa.7.0, i64 noundef 516) #6
  %.not4 = icmp eq i32 %25, 0
  br i1 %.not4, label %43, label %26

26:                                               ; preds = %24
  %27 = icmp samesign ult i64 %.sroa.7.0, 2
  br i1 %27, label %PACKET_get_net_2.exit, label %28

28:                                               ; preds = %26
  %29 = load i8, ptr %22, align 1, !tbaa !4
  %30 = zext i8 %29 to i32
  %31 = shl nuw nsw i32 %30, 8
  %.sroa.gep = getelementptr inbounds nuw i8, ptr %1, i64 4
  %.sroa.0.0.sroa.sel = select i1 %21, ptr %.sroa.gep, ptr inttoptr (i64 1 to ptr)
  %32 = load i8, ptr %.sroa.0.0.sroa.sel, align 1, !tbaa !4
  %33 = zext i8 %32 to i32
  %34 = or disjoint i32 %31, %33
  br label %PACKET_get_net_2.exit

PACKET_get_net_2.exit:                            ; preds = %26, %28
  %.022 = phi i32 [ 1024, %26 ], [ %34, %28 ]
  %.0.i10 = phi i32 [ 0, %26 ], [ 1, %28 ]
  %35 = tail call i32 @test_true(ptr noundef nonnull @.str.25, i32 noundef 412, ptr noundef nonnull @.str.108, i32 noundef %.0.i10) #6
  %.not5 = icmp eq i32 %35, 0
  br i1 %.not5, label %43, label %36

36:                                               ; preds = %PACKET_get_net_2.exit
  %37 = tail call i32 @test_uint_eq(ptr noundef nonnull @.str.25, i32 noundef 413, ptr noundef nonnull @.str.47, ptr noundef nonnull @.str.113, i32 noundef %.022, i32 noundef 1544) #6
  %.not6 = icmp eq i32 %37, 0
  br i1 %.not6, label %43, label %PACKET_get_length_prefixed_3.exit15

PACKET_get_length_prefixed_3.exit15:              ; preds = %36
  %38 = icmp samesign ult i64 %20, 514
  %spec.select24 = zext i1 %38 to i32
  %39 = tail call i32 @test_false(ptr noundef nonnull @.str.25, i32 noundef 414, ptr noundef nonnull @.str.116, i32 noundef %spec.select24) #6
  %.not7 = icmp eq i32 %39, 0
  br i1 %.not7, label %43, label %40

40:                                               ; preds = %PACKET_get_length_prefixed_3.exit15
  %41 = sub nuw nsw i64 513, %20
  %spec.select23 = select i1 %38, i64 %41, i64 516
  %42 = tail call i32 @test_size_t_eq(ptr noundef nonnull @.str.25, i32 noundef 415, ptr noundef nonnull @.str.110, ptr noundef nonnull @.str.84, i64 noundef %spec.select23, i64 noundef 516) #6
  %.not8 = icmp ne i32 %42, 0
  %spec.select = zext i1 %.not8 to i32
  br label %43

43:                                               ; preds = %40, %5, %7, %PACKET_get_length_prefixed_3.exit, %24, %PACKET_get_net_2.exit, %36, %PACKET_get_length_prefixed_3.exit15
  %.0 = phi i32 [ 0, %PACKET_get_length_prefixed_3.exit15 ], [ 0, %36 ], [ 0, %PACKET_get_net_2.exit ], [ 0, %24 ], [ 0, %PACKET_get_length_prefixed_3.exit ], [ 0, %7 ], [ 0, %5 ], [ %spec.select, %40 ]
  call void @llvm.lifetime.end.p0(i64 1024, ptr nonnull %1) #6
  ret i32 %.0
}